; Function Attrs: nounwind uwtable
define ptr @l_Lean_RBNode_findCore___at_Lean_Expr_fvarsSubset___spec__1(ptr noundef %0, ptr noundef %1) local_unnamed_addr #0 {
  br label %3

3:                                                ; preds = %.backedge, %2
  %.021 = phi ptr [ %0, %2 ], [ %.021.be, %.backedge ]
  %4 = ptrtoint ptr %.021 to i64
  %5 = and i64 %4, 1
  %.not.i = icmp eq i64 %5, 0
  br i1 %.not.i, label %9, label %6

6:                                                ; preds = %3
  %7 = lshr i64 %4, 1
  %8 = trunc i64 %7 to i32
  br label %lean_obj_tag.exit

9:                                                ; preds = %3
  %10 = getelementptr i8, ptr %.021, i64 4
  %.val.i = load i32, ptr %10, align 4
  %11 = lshr i32 %.val.i, 24
  br label %lean_obj_tag.exit

lean_obj_tag.exit:                                ; preds = %6, %9
  %.0.i = phi i32 [ %8, %6 ], [ %11, %9 ]
  %12 = icmp eq i32 %.0.i, 0
  br i1 %12, label %.loopexit, label %13

13:                                               ; preds = %lean_obj_tag.exit
  %14 = getelementptr inbounds nuw i8, ptr %.021, i64 8
  %15 = load ptr, ptr %14, align 8, !tbaa !4
  %16 = getelementptr inbounds nuw i8, ptr %.021, i64 16
  %17 = load ptr, ptr %16, align 8, !tbaa !4
  %18 = getelementptr inbounds nuw i8, ptr %.021, i64 24
  %19 = load ptr, ptr %18, align 8, !tbaa !4
  %20 = getelementptr inbounds nuw i8, ptr %.021, i64 32
  %21 = load ptr, ptr %20, align 8, !tbaa !4
  %22 = tail call zeroext i8 @l_Lean_Name_quickCmp(ptr noundef %1, ptr noundef %17) #3
  switch i8 %22, label %51 [
    i8 0, label %.backedge
    i8 1, label %23
  ]

.backedge:                                        ; preds = %13, %51
  %.021.be = phi ptr [ %21, %51 ], [ %15, %13 ]
  br label %3

23:                                               ; preds = %13
  %24 = ptrtoint ptr %19 to i64
  %25 = and i64 %24, 1
  %.not = icmp eq i64 %25, 0
  br i1 %.not, label %26, label %lean_inc.exit

26:                                               ; preds = %23
  %.val.i25 = load i32, ptr %19, align 4, !tbaa !8
  %27 = icmp sgt i32 %.val.i25, 0
  br i1 %27, label %28, label %30, !prof !11

28:                                               ; preds = %26
  %29 = add nuw i32 %.val.i25, 1
  store i32 %29, ptr %19, align 4, !tbaa !8
  br label %lean_inc.exit

30:                                               ; preds = %26
  %.not.i26 = icmp eq i32 %.val.i25, 0
  br i1 %.not.i26, label %lean_inc.exit, label %31

31:                                               ; preds = %30
  tail call void @lean_inc_ref_cold(ptr noundef nonnull %19) #3
  br label %lean_inc.exit

lean_inc.exit:                                    ; preds = %31, %30, %28, %23
  %32 = ptrtoint ptr %17 to i64
  %33 = and i64 %32, 1
  %.not36 = icmp eq i64 %33, 0
  br i1 %.not36, label %34, label %lean_inc.exit24

34:                                               ; preds = %lean_inc.exit
  %.val.i27 = load i32, ptr %17, align 4, !tbaa !8
  %35 = icmp sgt i32 %.val.i27, 0
  br i1 %35, label %36, label %38, !prof !11

36:                                               ; preds = %34
  %37 = add nuw i32 %.val.i27, 1
  store i32 %37, ptr %17, align 4, !tbaa !8
  br label %lean_inc.exit24

38:                                               ; preds = %34
  %.not.i28 = icmp eq i32 %.val.i27, 0
  br i1 %.not.i28, label %lean_inc.exit24, label %39

39:                                               ; preds = %38
  tail call void @lean_inc_ref_cold(ptr noundef nonnull %17) #3
  br label %lean_inc.exit24

lean_inc.exit24:                                  ; preds = %39, %38, %36, %lean_inc.exit
  tail call void @lean_inc_heartbeat() #3
  %40 = tail call noalias ptr @mi_malloc_small(i64 noundef 24) #3
  %41 = icmp eq ptr %40, null
  br i1 %41, label %42, label %lean_alloc_ctor.exit

42:                                               ; preds = %lean_inc.exit24
  tail call void @lean_internal_panic_out_of_memory() #4
  unreachable

lean_alloc_ctor.exit:                             ; preds = %lean_inc.exit24
  %43 = getelementptr inbounds nuw i8, ptr %40, i64 4
  store i32 1, ptr %40, align 4, !tbaa !8
  store i32 131096, ptr %43, align 4
  %44 = getelementptr inbounds nuw i8, ptr %40, i64 8
  store ptr %17, ptr %44, align 8, !tbaa !4
  %45 = getelementptr inbounds nuw i8, ptr %40, i64 16
  store ptr %19, ptr %45, align 8, !tbaa !4
  tail call void @lean_inc_heartbeat() #3
  %46 = tail call noalias ptr @mi_malloc_small(i64 noundef 16) #3
  %47 = icmp eq ptr %46, null
  br i1 %47, label %48, label %.thread

48:                                               ; preds = %lean_alloc_ctor.exit
  tail call void @lean_internal_panic_out_of_memory() #4
  unreachable

.thread:                                          ; preds = %lean_alloc_ctor.exit
  %49 = getelementptr inbounds nuw i8, ptr %46, i64 4
  store i32 1, ptr %46, align 4, !tbaa !8
  store i32 16842768, ptr %49, align 4
  %50 = getelementptr inbounds nuw i8, ptr %46, i64 8
  store ptr %40, ptr %50, align 8, !tbaa !4
  br label %.loopexit

51:                                               ; preds = %13
  br label %.backedge

.loopexit:                                        ; preds = %lean_obj_tag.exit, %.thread
  %.1 = phi ptr [ %46, %.thread ], [ inttoptr (i64 1 to ptr), %lean_obj_tag.exit ]
  ret ptr %.1
}